; Function Attrs: mustprogress nounwind uwtable
define dso_local noundef nonnull align 8 dereferenceable(48) ptr @_ZN4llvm3rdflsERNS_11raw_ostreamERKNS0_5PrintINS0_8NodeAddrIPNS0_7UseNodeEEEEE(ptr noundef nonnull returned align 8 dereferenceable(48) %0, ptr noundef nonnull readonly align 8 captures(none) dereferenceable(16) %1) local_unnamed_addr #0 {
  %3 = alloca i32, align 4
  %4 = alloca %"struct.llvm::rdf::Print.57", align 8
  %5 = alloca i32, align 4
  %6 = alloca %"struct.llvm::rdf::Print.57", align 8
  %7 = load ptr, ptr %1, align 8
  %8 = load ptr, ptr %7, align 8
  %9 = getelementptr inbounds nuw i8, ptr %7, i64 8
  %10 = load i32, ptr %9, align 8
  %11 = getelementptr inbounds nuw i8, ptr %1, i64 8
  %12 = load ptr, ptr %11, align 8
  tail call fastcc void @_ZN4llvm3rdfL14printRefHeaderERNS_11raw_ostreamENS0_8NodeAddrIPNS0_7RefNodeEEERKNS0_13DataFlowGraphE(ptr noundef nonnull align 8 dereferenceable(48) %0, ptr %8, i32 %10, ptr noundef nonnull align 8 dereferenceable(736) %12)
  %13 = getelementptr inbounds nuw i8, ptr %0, i64 32
  %14 = load ptr, ptr %13, align 8
  %15 = getelementptr inbounds nuw i8, ptr %0, i64 24
  %16 = load ptr, ptr %15, align 8
  %.not.i = icmp ult ptr %14, %16
  br i1 %.not.i, label %19, label %17

17:                                               ; preds = %2
  %18 = tail call noundef nonnull align 8 dereferenceable(48) ptr @_ZN4llvm11raw_ostream5writeEh(ptr noundef nonnull align 8 dereferenceable(48) %0, i8 noundef zeroext 40) #22
  br label %_ZN4llvm11raw_ostreamlsEc.exit

19:                                               ; preds = %2
  %20 = getelementptr inbounds nuw i8, ptr %14, i64 1
  store ptr %20, ptr %13, align 8
  store i8 40, ptr %14, align 1
  br label %_ZN4llvm11raw_ostreamlsEc.exit

_ZN4llvm11raw_ostreamlsEc.exit:                   ; preds = %17, %19
  %21 = load ptr, ptr %1, align 8
  %22 = load ptr, ptr %21, align 8
  %23 = getelementptr inbounds nuw i8, ptr %22, i64 8
  %24 = load i32, ptr %23, align 8
  store i32 %24, ptr %3, align 4
  %.not = icmp eq i32 %24, 0
  br i1 %.not, label %29, label %25

25:                                               ; preds = %_ZN4llvm11raw_ostreamlsEc.exit
  %26 = load ptr, ptr %11, align 8
  store ptr %3, ptr %4, align 8
  %27 = getelementptr inbounds nuw i8, ptr %4, i64 8
  store ptr %26, ptr %27, align 8
  %28 = call noundef nonnull align 8 dereferenceable(48) ptr @_ZN4llvm3rdflsERNS_11raw_ostreamERKNS0_5PrintIjEE(ptr noundef nonnull align 8 dereferenceable(48) %0, ptr noundef nonnull align 8 dereferenceable(16) %4)
  br label %29

29:                                               ; preds = %25, %_ZN4llvm11raw_ostreamlsEc.exit
  %30 = load ptr, ptr %15, align 8
  %31 = load ptr, ptr %13, align 8
  %32 = ptrtoint ptr %30 to i64
  %33 = ptrtoint ptr %31 to i64
  %34 = sub i64 %32, %33
  %35 = icmp ult i64 %34, 2
  br i1 %35, label %36, label %38

36:                                               ; preds = %29
  %37 = call noundef nonnull align 8 dereferenceable(48) ptr @_ZN4llvm11raw_ostream5writeEPKcm(ptr noundef nonnull align 8 dereferenceable(48) %0, ptr noundef nonnull @.str.3, i64 noundef 2) #22
  br label %_ZN4llvm11raw_ostreamlsEPKc.exit

38:                                               ; preds = %29
  store i16 14889, ptr %31, align 1
  %39 = load ptr, ptr %13, align 8
  %40 = getelementptr inbounds nuw i8, ptr %39, i64 2
  store ptr %40, ptr %13, align 8
  br label %_ZN4llvm11raw_ostreamlsEPKc.exit

_ZN4llvm11raw_ostreamlsEPKc.exit:                 ; preds = %36, %38
  %41 = load ptr, ptr %1, align 8
  %42 = load ptr, ptr %41, align 8
  %43 = getelementptr inbounds nuw i8, ptr %42, i64 12
  %44 = load i32, ptr %43, align 4
  store i32 %44, ptr %5, align 4
  %.not12 = icmp eq i32 %44, 0
  br i1 %.not12, label %49, label %45

45:                                               ; preds = %_ZN4llvm11raw_ostreamlsEPKc.exit
  %46 = load ptr, ptr %11, align 8
  store ptr %5, ptr %6, align 8
  %47 = getelementptr inbounds nuw i8, ptr %6, i64 8
  store ptr %46, ptr %47, align 8
  %48 = call noundef nonnull align 8 dereferenceable(48) ptr @_ZN4llvm3rdflsERNS_11raw_ostreamERKNS0_5PrintIjEE(ptr noundef nonnull align 8 dereferenceable(48) %0, ptr noundef nonnull align 8 dereferenceable(16) %6)
  br label %49

49:                                               ; preds = %45, %_ZN4llvm11raw_ostreamlsEPKc.exit
  ret ptr %0
}